target datalayout = "e-m:e-p270:32:32-p271:32:32-p272:64:64-i64:64-i128:128-f80:128-n8:16:32:64-S128"
target triple = "x86_64-pc-linux-gnu"

%"struct.cv::Ptr" = type { %"class.std::shared_ptr" }
%"class.std::shared_ptr" = type { %"class.std::__shared_ptr" }
%"class.std::__shared_ptr" = type { ptr, %"class.std::__shared_count" }
%"class.std::__shared_count" = type { ptr }
%"struct.cv::DetectionBasedTracker::Parameters" = type { i32, i32 }
%"class.cv::DetectionBasedTracker" = type { ptr, %"struct.cv::Ptr.0", %"struct.cv::DetectionBasedTracker::Parameters", %"struct.cv::DetectionBasedTracker::InnerParameters", i32, %"class.std::vector.4", %"class.std::vector.9", %"class.std::vector.9", %"struct.cv::Ptr" }
%"struct.cv::Ptr.0" = type { %"class.std::shared_ptr.1" }
%"class.std::shared_ptr.1" = type { %"class.std::__shared_ptr.2" }
%"class.std::__shared_ptr.2" = type { ptr, %"class.std::__shared_count" }
%"struct.cv::DetectionBasedTracker::InnerParameters" = type { i32, i32, i32, i32, float, float, float }
%"class.std::vector.4" = type { %"struct.std::_Vector_base.5" }
%"struct.std::_Vector_base.5" = type { %"struct.std::_Vector_base<cv::DetectionBasedTracker::TrackedObject, std::allocator<cv::DetectionBasedTracker::TrackedObject>>::_Vector_impl" }
%"struct.std::_Vector_base<cv::DetectionBasedTracker::TrackedObject, std::allocator<cv::DetectionBasedTracker::TrackedObject>>::_Vector_impl" = type { %"struct.std::_Vector_base<cv::DetectionBasedTracker::TrackedObject, std::allocator<cv::DetectionBasedTracker::TrackedObject>>::_Vector_impl_data" }
%"struct.std::_Vector_base<cv::DetectionBasedTracker::TrackedObject, std::allocator<cv::DetectionBasedTracker::TrackedObject>>::_Vector_impl_data" = type { ptr, ptr, ptr }
%"class.std::vector.9" = type { %"struct.std::_Vector_base.10" }
%"struct.std::_Vector_base.10" = type { %"struct.std::_Vector_base<float, std::allocator<float>>::_Vector_impl" }
%"struct.std::_Vector_base<float, std::allocator<float>>::_Vector_impl" = type { %"struct.std::_Vector_base<float, std::allocator<float>>::_Vector_impl_data" }
%"struct.std::_Vector_base<float, std::allocator<float>>::_Vector_impl_data" = type { ptr, ptr, ptr }

; Function Attrs: mustprogress nounwind uwtable
define linkonce_odr hidden noundef ptr @_ZNKSt12__shared_ptrIN2cv21DetectionBasedTracker21SeparateDetectionWorkELN9__gnu_cxx12_Lock_policyE2EE3getEv(ptr noundef nonnull align 8 dereferenceable(16) %0) #2 comdat align 2 {
  %2 = alloca ptr, align 8
  store ptr %0, ptr %2, align 8, !tbaa !143
  %3 = load ptr, ptr %2, align 8
  %4 = getelementptr inbounds nuw %"class.std::__shared_ptr.2", ptr %3, i32 0, i32 0
  %5 = load ptr, ptr %4, align 8, !tbaa !162
  ret ptr %5
}

; Function Attrs: mustprogress nounwind uwtable
define linkonce_odr hidden noundef ptr @_ZNK2cv3PtrINS_21DetectionBasedTracker21SeparateDetectionWorkEEptEv(ptr noundef nonnull align 8 dereferenceable(16) %0) #2 comdat align 2 {
  %2 = alloca ptr, align 8
  store ptr %0, ptr %2, align 8, !tbaa !137
  %3 = load ptr, ptr %2, align 8
  %4 = call noundef ptr @_ZNKSt12__shared_ptrIN2cv21DetectionBasedTracker21SeparateDetectionWorkELN9__gnu_cxx12_Lock_policyE2EE3getEv(ptr noundef nonnull align 8 dereferenceable(16) %3) #12
  ret ptr %4
}

; Function Attrs: mustprogress nounwind uwtable
define linkonce_odr hidden noundef zeroext i1 @_ZNKSt12__shared_ptrIN2cv21DetectionBasedTracker21SeparateDetectionWorkELN9__gnu_cxx12_Lock_policyE2EEcvbEv(ptr noundef nonnull align 8 dereferenceable(16) %0) #2 comdat align 2 {
  %2 = alloca ptr, align 8
  store ptr %0, ptr %2, align 8, !tbaa !143
  %3 = load ptr, ptr %2, align 8
  %4 = getelementptr inbounds nuw %"class.std::__shared_ptr.2", ptr %3, i32 0, i32 0
  %5 = load ptr, ptr %4, align 8, !tbaa !162
  %6 = icmp ne ptr %5, null
  ret i1 %6
}

; Function Attrs: mustprogress uwtable
define noundef zeroext i1 @_ZN2cv21DetectionBasedTracker3runEv(ptr noundef nonnull align 8 dereferenceable(152) %0) unnamed_addr #0 align 2 {
  %2 = alloca i1, align 1
  %3 = alloca ptr, align 8
  store ptr %0, ptr %3, align 8, !tbaa !8
  %4 = load ptr, ptr %3, align 8
  %5 = getelementptr inbounds nuw %"class.cv::DetectionBasedTracker", ptr %4, i32 0, i32 1
  %6 = call noundef zeroext i1 @_ZNKSt12__shared_ptrIN2cv21DetectionBasedTracker21SeparateDetectionWorkELN9__gnu_cxx12_Lock_policyE2EEcvbEv(ptr noundef nonnull align 8 dereferenceable(16) %5) #12
  br i1 %6, label %7, label %11

7:                                                ; preds = %1
  %8 = getelementptr inbounds nuw %"class.cv::DetectionBasedTracker", ptr %4, i32 0, i32 1
  %9 = call noundef ptr @_ZNK2cv3PtrINS_21DetectionBasedTracker21SeparateDetectionWorkEEptEv(ptr noundef nonnull align 8 dereferenceable(16) %8) #12
  %10 = call noundef zeroext i1 @_ZN2cv21DetectionBasedTracker21SeparateDetectionWork3runEv(ptr noundef nonnull align 8 dereferenceable(320) %9)
  store i1 %10, ptr %2, align 1
  br label %12

11:                                               ; preds = %1
  store i1 false, ptr %2, align 1
  br label %12

12:                                               ; preds = %11, %7
  %13 = load i1, ptr %2, align 1
  ret i1 %13
}